
program.debug.elf:     file format elf32-littleriscv


Disassembly of section .text:

00000000 <crt>:

.global crt
.section .text.prologue, "ax"
.align 4
crt:
	nop
   0:	00000013          	addi	zero,zero,0
	la ra, exit
   4:	00000097          	auipc	ra,0x0
   8:	08c08093          	addi	ra,ra,140 # 90 <exit>
	la sp, _sp
   c:	00010117          	auipc	sp,0x10
  10:	ff410113          	addi	sp,sp,-12 # 10000 <_sp>
	mv s0, sp
  14:	00010413          	addi	s0,sp,0
	la gp, __global_pointer$
  18:	00001197          	auipc	gp,0x1
  1c:	98818193          	addi	gp,gp,-1656 # 9a0 <__global_pointer$>
	li tp, 0
  20:	00000213          	addi	tp,zero,0
	li t0, 0
  24:	00000293          	addi	t0,zero,0
	li t1, 0
  28:	00000313          	addi	t1,zero,0
	li t2, 0
  2c:	00000393          	addi	t2,zero,0
	li s1, 0
  30:	00000493          	addi	s1,zero,0
	li a0, 0
  34:	00000513          	addi	a0,zero,0
	li a1, 0
  38:	00000593          	addi	a1,zero,0
	li a2, 0
  3c:	00000613          	addi	a2,zero,0
	li a3, 0
  40:	00000693          	addi	a3,zero,0
	li a4, 0
  44:	00000713          	addi	a4,zero,0
	li a5, 0
  48:	00000793          	addi	a5,zero,0
	li a6, 0
  4c:	00000813          	addi	a6,zero,0
	li a7, 0
  50:	00000893          	addi	a7,zero,0
	li s2, 0
  54:	00000913          	addi	s2,zero,0
	li s3, 0
  58:	00000993          	addi	s3,zero,0
	li s4, 0
  5c:	00000a13          	addi	s4,zero,0
	li s5, 0
  60:	00000a93          	addi	s5,zero,0
	li s6, 0
  64:	00000b13          	addi	s6,zero,0
	li s7, 0
  68:	00000b93          	addi	s7,zero,0
	li s8, 0
  6c:	00000c13          	addi	s8,zero,0
	li s9, 0
  70:	00000c93          	addi	s9,zero,0
	li s10, 0
  74:	00000d13          	addi	s10,zero,0
	li s11, 0
  78:	00000d93          	addi	s11,zero,0
	li t3, 0
  7c:	00000e13          	addi	t3,zero,0
	li t4, 0
  80:	00000e93          	addi	t4,zero,0
	li t5, 0
  84:	00000f13          	addi	t5,zero,0
	li t6, 0
  88:	00000f93          	addi	t6,zero,0
	j main
  8c:	0240006f          	jal	zero,b0 <main>

00000090 <exit>:

.global exit
.section .text
.align 4
exit:
	la sp, _sp
  90:	00010117          	auipc	sp,0x10
  94:	f7010113          	addi	sp,sp,-144 # 10000 <_sp>
	sw a0, -8(sp)
  98:	fea12c23          	sw	a0,-8(sp)
	nop
  9c:	00000013          	addi	zero,zero,0
	wfi
  a0:	10500073          	wfi
  a4:	00000013          	addi	zero,zero,0
  a8:	00000013          	addi	zero,zero,0
  ac:	00000013          	addi	zero,zero,0

000000b0 <main>:
#include <stdio.h>

static int k=0;
void main() {
  b0:	fe010113          	addi	sp,sp,-32
  b4:	00112e23          	sw	ra,28(sp)
  b8:	00812c23          	sw	s0,24(sp)
  bc:	02010413          	addi	s0,sp,32
  void func (int, int);
  static int i = 1000;
  int j;
  for (j=0;j<1000;j++) {
  c0:	fe042623          	sw	zero,-20(s0)
  c4:	0280006f          	jal	zero,ec <main+0x3c>
    func(i,j);
  c8:	000007b7          	lui	a5,0x0
  cc:	1c07a783          	lw	a5,448(a5) # 1c0 <i.0>
  d0:	fec42583          	lw	a1,-20(s0)
  d4:	00078513          	addi	a0,a5,0
  d8:	00000097          	auipc	ra,0x0
  dc:	038080e7          	jalr	ra,56(ra) # 110 <func>
  for (j=0;j<1000;j++) {
  e0:	fec42783          	lw	a5,-20(s0)
  e4:	00178793          	addi	a5,a5,1
  e8:	fef42623          	sw	a5,-20(s0)
  ec:	fec42703          	lw	a4,-20(s0)
  f0:	3e700793          	addi	a5,zero,999
  f4:	fce7dae3          	bge	a5,a4,c8 <main+0x18>
  }
  //printf("k is %d\n",k);
}
  f8:	00000013          	addi	zero,zero,0
  fc:	00000013          	addi	zero,zero,0
 100:	01c12083          	lw	ra,28(sp)
 104:	01812403          	lw	s0,24(sp)
 108:	02010113          	addi	sp,sp,32
 10c:	00008067          	jalr	zero,0(ra)

00000110 <func>:

void func(int l,int j) {
 110:	fe010113          	addi	sp,sp,-32
 114:	00112e23          	sw	ra,28(sp)
 118:	00812c23          	sw	s0,24(sp)
 11c:	02010413          	addi	s0,sp,32
 120:	fea42623          	sw	a0,-20(s0)
 124:	feb42423          	sw	a1,-24(s0)
  k = j + l;
 128:	fe842703          	lw	a4,-24(s0)
 12c:	fec42783          	lw	a5,-20(s0)
 130:	00f70733          	add	a4,a4,a5
 134:	000007b7          	lui	a5,0x0
 138:	1ee7a023          	sw	a4,480(a5) # 1e0 <k>
  if (l == 0) 
 13c:	fec42783          	lw	a5,-20(s0)
 140:	02078063          	beq	a5,zero,160 <func+0x50>
    return;
  else
    func(l-1, j);
 144:	fec42783          	lw	a5,-20(s0)
 148:	fff78793          	addi	a5,a5,-1
 14c:	fe842583          	lw	a1,-24(s0)
 150:	00078513          	addi	a0,a5,0
 154:	00000097          	auipc	ra,0x0
 158:	fbc080e7          	jalr	ra,-68(ra) # 110 <func>
 15c:	0080006f          	jal	zero,164 <func+0x54>
    return;
 160:	00000013          	addi	zero,zero,0
}
 164:	01c12083          	lw	ra,28(sp)
 168:	01812403          	lw	s0,24(sp)
 16c:	02010113          	addi	sp,sp,32
 170:	00008067          	jalr	zero,0(ra)
	...
