
program.debug.elf:     file format elf32-littleriscv


Disassembly of section .text:

00000000 <crt>:

.global crt
.section .text.prologue, "ax"
.align 4
crt:
	nop
   0:	00000013          	addi	zero,zero,0
	la ra, exit
   4:	00000097          	auipc	ra,0x0
   8:	08c08093          	addi	ra,ra,140 # 90 <exit>
	la sp, _sp
   c:	00010117          	auipc	sp,0x10
  10:	ff410113          	addi	sp,sp,-12 # 10000 <_sp>
	mv s0, sp
  14:	00010413          	addi	s0,sp,0
	la gp, __global_pointer$
  18:	00001197          	auipc	gp,0x1
  1c:	a4818193          	addi	gp,gp,-1464 # a60 <__global_pointer$>
	li tp, 0
  20:	00000213          	addi	tp,zero,0
	li t0, 0
  24:	00000293          	addi	t0,zero,0
	li t1, 0
  28:	00000313          	addi	t1,zero,0
	li t2, 0
  2c:	00000393          	addi	t2,zero,0
	li s1, 0
  30:	00000493          	addi	s1,zero,0
	li a0, 0
  34:	00000513          	addi	a0,zero,0
	li a1, 0
  38:	00000593          	addi	a1,zero,0
	li a2, 0
  3c:	00000613          	addi	a2,zero,0
	li a3, 0
  40:	00000693          	addi	a3,zero,0
	li a4, 0
  44:	00000713          	addi	a4,zero,0
	li a5, 0
  48:	00000793          	addi	a5,zero,0
	li a6, 0
  4c:	00000813          	addi	a6,zero,0
	li a7, 0
  50:	00000893          	addi	a7,zero,0
	li s2, 0
  54:	00000913          	addi	s2,zero,0
	li s3, 0
  58:	00000993          	addi	s3,zero,0
	li s4, 0
  5c:	00000a13          	addi	s4,zero,0
	li s5, 0
  60:	00000a93          	addi	s5,zero,0
	li s6, 0
  64:	00000b13          	addi	s6,zero,0
	li s7, 0
  68:	00000b93          	addi	s7,zero,0
	li s8, 0
  6c:	00000c13          	addi	s8,zero,0
	li s9, 0
  70:	00000c93          	addi	s9,zero,0
	li s10, 0
  74:	00000d13          	addi	s10,zero,0
	li s11, 0
  78:	00000d93          	addi	s11,zero,0
	li t3, 0
  7c:	00000e13          	addi	t3,zero,0
	li t4, 0
  80:	00000e93          	addi	t4,zero,0
	li t5, 0
  84:	00000f13          	addi	t5,zero,0
	li t6, 0
  88:	00000f93          	addi	t6,zero,0
	j main
  8c:	0240006f          	jal	zero,b0 <main>

00000090 <exit>:

.global exit
.section .text
.align 4
exit:
	la sp, _sp
  90:	00010117          	auipc	sp,0x10
  94:	f7010113          	addi	sp,sp,-144 # 10000 <_sp>
	sw a0, -8(sp)
  98:	fea12c23          	sw	a0,-8(sp)
	nop
  9c:	00000013          	addi	zero,zero,0
	wfi
  a0:	10500073          	wfi
  a4:	00000013          	addi	zero,zero,0
  a8:	00000013          	addi	zero,zero,0
  ac:	00000013          	addi	zero,zero,0

000000b0 <main>:
#include <stdio.h>
void main() {
  b0:	fd010113          	addi	sp,sp,-48
  b4:	02112623          	sw	ra,44(sp)
  b8:	02812423          	sw	s0,40(sp)
  bc:	03010413          	addi	s0,sp,48
  int i,j, k=1, l=2, m=3, n=4, o=5;
  c0:	00100793          	addi	a5,zero,1
  c4:	fef42423          	sw	a5,-24(s0)
  c8:	00200793          	addi	a5,zero,2
  cc:	fef42223          	sw	a5,-28(s0)
  d0:	00300793          	addi	a5,zero,3
  d4:	fef42023          	sw	a5,-32(s0)
  d8:	00400793          	addi	a5,zero,4
  dc:	fcf42e23          	sw	a5,-36(s0)
  e0:	00500793          	addi	a5,zero,5
  e4:	fcf42c23          	sw	a5,-40(s0)
  for (i=0;i<100;i++) {
  e8:	fe042623          	sw	zero,-20(s0)
  ec:	1080006f          	jal	zero,1f4 <main+0x144>
    j=i%10;
  f0:	fec42703          	lw	a4,-20(s0)
  f4:	666667b7          	lui	a5,0x66666
  f8:	66778793          	addi	a5,a5,1639 # 66666667 <_sp+0x66656667>
  fc:	02f717b3          	mulh	a5,a4,a5
 100:	4027d693          	srai	a3,a5,0x2
 104:	41f75793          	srai	a5,a4,0x1f
 108:	40f686b3          	sub	a3,a3,a5
 10c:	00068793          	addi	a5,a3,0
 110:	00279793          	slli	a5,a5,0x2
 114:	00d787b3          	add	a5,a5,a3
 118:	00179793          	slli	a5,a5,0x1
 11c:	40f707b3          	sub	a5,a4,a5
 120:	fcf42a23          	sw	a5,-44(s0)
    switch (j) {
 124:	fd442703          	lw	a4,-44(s0)
 128:	00900793          	addi	a5,zero,9
 12c:	0ae7ee63          	bltu	a5,a4,1e8 <main+0x138>
 130:	fd442783          	lw	a5,-44(s0)
 134:	00279713          	slli	a4,a5,0x2
 138:	000007b7          	lui	a5,0x0
 13c:	26078793          	addi	a5,a5,608 # 260 <main+0x1b0>
 140:	00f707b3          	add	a5,a4,a5
 144:	0007a783          	lw	a5,0(a5)
 148:	00078067          	jalr	zero,0(a5)
      case 0:
	k++;
 14c:	fe842783          	lw	a5,-24(s0)
 150:	00178793          	addi	a5,a5,1
 154:	fef42423          	sw	a5,-24(s0)
	break;
 158:	0900006f          	jal	zero,1e8 <main+0x138>
      case 1:
	l++;
 15c:	fe442783          	lw	a5,-28(s0)
 160:	00178793          	addi	a5,a5,1
 164:	fef42223          	sw	a5,-28(s0)
	break;
 168:	0800006f          	jal	zero,1e8 <main+0x138>
      case 3:
	m++;
 16c:	fe042783          	lw	a5,-32(s0)
 170:	00178793          	addi	a5,a5,1
 174:	fef42023          	sw	a5,-32(s0)
	break;
 178:	0700006f          	jal	zero,1e8 <main+0x138>
      case 4:
	n++;
 17c:	fdc42783          	lw	a5,-36(s0)
 180:	00178793          	addi	a5,a5,1
 184:	fcf42e23          	sw	a5,-36(s0)
	break;
 188:	0600006f          	jal	zero,1e8 <main+0x138>
      case 5:
	o++;
 18c:	fd842783          	lw	a5,-40(s0)
 190:	00178793          	addi	a5,a5,1
 194:	fcf42c23          	sw	a5,-40(s0)
	break;
 198:	0500006f          	jal	zero,1e8 <main+0x138>
      case 6:
	k--;
 19c:	fe842783          	lw	a5,-24(s0)
 1a0:	fff78793          	addi	a5,a5,-1
 1a4:	fef42423          	sw	a5,-24(s0)
	break;
 1a8:	0400006f          	jal	zero,1e8 <main+0x138>
      case 7:
        l--;
 1ac:	fe442783          	lw	a5,-28(s0)
 1b0:	fff78793          	addi	a5,a5,-1
 1b4:	fef42223          	sw	a5,-28(s0)
	break;
 1b8:	0300006f          	jal	zero,1e8 <main+0x138>
      case 8:
	m--;
 1bc:	fe042783          	lw	a5,-32(s0)
 1c0:	fff78793          	addi	a5,a5,-1
 1c4:	fef42023          	sw	a5,-32(s0)
	break;
 1c8:	0200006f          	jal	zero,1e8 <main+0x138>
      case 9:
	n--;
 1cc:	fdc42783          	lw	a5,-36(s0)
 1d0:	fff78793          	addi	a5,a5,-1
 1d4:	fcf42e23          	sw	a5,-36(s0)
	break;
 1d8:	0100006f          	jal	zero,1e8 <main+0x138>
      case 2:
	o--;
 1dc:	fd842783          	lw	a5,-40(s0)
 1e0:	fff78793          	addi	a5,a5,-1
 1e4:	fcf42c23          	sw	a5,-40(s0)
  for (i=0;i<100;i++) {
 1e8:	fec42783          	lw	a5,-20(s0)
 1ec:	00178793          	addi	a5,a5,1
 1f0:	fef42623          	sw	a5,-20(s0)
 1f4:	fec42703          	lw	a4,-20(s0)
 1f8:	06300793          	addi	a5,zero,99
 1fc:	eee7dae3          	bge	a5,a4,f0 <main+0x40>
    }
  }
  //printf("k l m n o %d %d %d %d %d\n",k,l,m,n,o);
}
 200:	00000013          	addi	zero,zero,0
 204:	00000013          	addi	zero,zero,0
 208:	02c12083          	lw	ra,44(sp)
 20c:	02812403          	lw	s0,40(sp)
 210:	03010113          	addi	sp,sp,48
 214:	00008067          	jalr	zero,0(ra)
	...
